target datalayout = "e-m:e-p270:32:32-p271:32:32-p272:64:64-i64:64-i128:128-f80:128-n8:16:32:64-S128"
target triple = "x86_64-pc-linux-gnu"

%class.SafeOpFlags = type { i8, i8, i8, i32 }
%class.Type = type { i32, ptr, i32, %"class.std::vector.0", %"class.std::vector.5", i32, i8, i8, i8, i8, i8, %"class.std::vector.10", %"class.std::vector.15" }
%"class.std::vector.0" = type { %"struct.std::_Vector_base.1" }
%"struct.std::_Vector_base.1" = type { %"struct.std::_Vector_base<unsigned int, std::allocator<unsigned int>>::_Vector_impl" }
%"struct.std::_Vector_base<unsigned int, std::allocator<unsigned int>>::_Vector_impl" = type { %"struct.std::_Vector_base<unsigned int, std::allocator<unsigned int>>::_Vector_impl_data" }
%"struct.std::_Vector_base<unsigned int, std::allocator<unsigned int>>::_Vector_impl_data" = type { ptr, ptr, ptr }
%"class.std::vector.5" = type { %"struct.std::_Vector_base.6" }
%"struct.std::_Vector_base.6" = type { %"struct.std::_Vector_base<const Type *, std::allocator<const Type *>>::_Vector_impl" }
%"struct.std::_Vector_base<const Type *, std::allocator<const Type *>>::_Vector_impl" = type { %"struct.std::_Vector_base<const Type *, std::allocator<const Type *>>::_Vector_impl_data" }
%"struct.std::_Vector_base<const Type *, std::allocator<const Type *>>::_Vector_impl_data" = type { ptr, ptr, ptr }
%"class.std::vector.10" = type { %"struct.std::_Vector_base.11" }
%"struct.std::_Vector_base.11" = type { %"struct.std::_Vector_base<CVQualifiers, std::allocator<CVQualifiers>>::_Vector_impl" }
%"struct.std::_Vector_base<CVQualifiers, std::allocator<CVQualifiers>>::_Vector_impl" = type { %"struct.std::_Vector_base<CVQualifiers, std::allocator<CVQualifiers>>::_Vector_impl_data" }
%"struct.std::_Vector_base<CVQualifiers, std::allocator<CVQualifiers>>::_Vector_impl_data" = type { ptr, ptr, ptr }
%"class.std::vector.15" = type { %"struct.std::_Vector_base.16" }
%"struct.std::_Vector_base.16" = type { %"struct.std::_Vector_base<int, std::allocator<int>>::_Vector_impl" }
%"struct.std::_Vector_base<int, std::allocator<int>>::_Vector_impl" = type { %"struct.std::_Vector_base<int, std::allocator<int>>::_Vector_impl_data" }
%"struct.std::_Vector_base<int, std::allocator<int>>::_Vector_impl_data" = type { ptr, ptr, ptr }

@_ZN11SafeOpFlagsC1Ev = dso_local unnamed_addr alias void (ptr), ptr @_ZN11SafeOpFlagsC2Ev

; Function Attrs: mustprogress nounwind uwtable
define linkonce_odr dso_local noundef zeroext i1 @_ZNK4Type8is_floatEv(ptr noundef nonnull align 8 dereferenceable(136) %0) #4 comdat align 2 {
  %2 = alloca ptr, align 8
  store ptr %0, ptr %2, align 8, !tbaa !28
  %3 = load ptr, ptr %2, align 8
  %4 = getelementptr inbounds nuw %class.Type, ptr %3, i32 0, i32 0
  %5 = load i32, ptr %4, align 8, !tbaa !32
  %6 = icmp eq i32 %5, 0
  br i1 %6, label %7, label %11

7:                                                ; preds = %1
  %8 = getelementptr inbounds nuw %class.Type, ptr %3, i32 0, i32 2
  %9 = load i32, ptr %8, align 8, !tbaa !55
  %10 = icmp eq i32 %9, 10
  br label %11

11:                                               ; preds = %7, %1
  %12 = phi i1 [ false, %1 ], [ %10, %7 ]
  ret i1 %12
}

; Function Attrs: mustprogress uwtable
define dso_local noundef zeroext i1 @_ZN11SafeOpFlags17return_float_typeEPK4TypeS2_9eUnaryOps(ptr noundef %0, ptr noundef %1, i32 noundef %2) #5 align 2 {
  %4 = alloca i1, align 1
  %5 = alloca ptr, align 8
  %6 = alloca ptr, align 8
  %7 = alloca i32, align 4
  store ptr %0, ptr %5, align 8, !tbaa !28
  store ptr %1, ptr %6, align 8, !tbaa !28
  store i32 %2, ptr %7, align 4, !tbaa !56
  %8 = call noundef zeroext i1 @_ZN9CGOptions12enable_floatEv()
  br i1 %8, label %10, label %9

9:                                                ; preds = %3
  store i1 false, ptr %4, align 1
  br label %29

10:                                               ; preds = %3
  %11 = load ptr, ptr %5, align 8, !tbaa !28
  %12 = icmp ne ptr %11, null
  br i1 %12, label %13, label %17

13:                                               ; preds = %10
  %14 = load ptr, ptr %5, align 8, !tbaa !28
  %15 = call noundef zeroext i1 @_ZNK4Type8is_floatEv(ptr noundef nonnull align 8 dereferenceable(136) %14)
  br i1 %15, label %16, label %17

16:                                               ; preds = %13
  store i1 true, ptr %4, align 1
  br label %29

17:                                               ; preds = %13, %10
  %18 = load ptr, ptr %6, align 8, !tbaa !28
  %19 = icmp ne ptr %18, null
  br i1 %19, label %20, label %24

20:                                               ; preds = %17
  %21 = load ptr, ptr %6, align 8, !tbaa !28
  %22 = call noundef zeroext i1 @_ZNK4Type8is_floatEv(ptr noundef nonnull align 8 dereferenceable(136) %21)
  br i1 %22, label %23, label %24

23:                                               ; preds = %20
  store i1 true, ptr %4, align 1
  br label %29

24:                                               ; preds = %20, %17
  %25 = load i32, ptr %7, align 4, !tbaa !56
  %26 = call noundef zeroext i1 @_ZN18FunctionInvocation20UnaryOpWorksForFloatE9eUnaryOps(i32 noundef %25)
  br i1 %26, label %28, label %27

27:                                               ; preds = %24
  store i1 false, ptr %4, align 1
  br label %29

28:                                               ; preds = %24
  store i1 false, ptr %4, align 1
  br label %29

29:                                               ; preds = %28, %27, %23, %16, %9
  %30 = load i1, ptr %4, align 1
  ret i1 %30
}

; Function Attrs: mustprogress uwtable
define dso_local noundef ptr @_ZN11SafeOpFlags17make_random_unaryEPK4TypeS2_9eUnaryOps(ptr noundef %0, ptr noundef %1, i32 noundef %2) #5 align 2 personality ptr @__gxx_personality_v0 {
  %4 = alloca ptr, align 8
  %5 = alloca ptr, align 8
  %6 = alloca i32, align 4
  %7 = alloca ptr, align 8
  %8 = alloca ptr, align 8
  %9 = alloca i32, align 4
  %10 = alloca i8, align 1
  store ptr %0, ptr %4, align 8, !tbaa !28
  store ptr %1, ptr %5, align 8, !tbaa !28
  store i32 %2, ptr %6, align 4, !tbaa !56
  call void @llvm.lifetime.start.p0(i64 8, ptr %7) #3
  %11 = call noalias noundef nonnull ptr @_Znwm(i64 noundef 8) #17
  invoke void @_ZN11SafeOpFlagsC1Ev(ptr noundef nonnull align 4 dereferenceable(8) %11)
          to label %12 unwind label %23

12:                                               ; preds = %3
  store ptr %11, ptr %7, align 8, !tbaa !13
  call void @llvm.lifetime.start.p0(i64 1, ptr %10) #3
  %13 = load ptr, ptr %4, align 8, !tbaa !28
  %14 = load ptr, ptr %5, align 8, !tbaa !28
  %15 = load i32, ptr %6, align 4, !tbaa !56
  %16 = call noundef zeroext i1 @_ZN11SafeOpFlags17return_float_typeEPK4TypeS2_9eUnaryOps(ptr noundef %13, ptr noundef %14, i32 noundef %15)
  %17 = zext i1 %16 to i8
  store i8 %17, ptr %10, align 1, !tbaa !15
  %18 = load i8, ptr %10, align 1, !tbaa !15, !range !19, !noundef !20
  %19 = trunc i8 %18 to i1
  br i1 %19, label %20, label %27

20:                                               ; preds = %12
  %21 = load ptr, ptr %7, align 8, !tbaa !13
  %22 = getelementptr inbounds nuw %class.SafeOpFlags, ptr %21, i32 0, i32 0
  store i8 1, ptr %22, align 4, !tbaa !21
  br label %33

23:                                               ; preds = %3
  %24 = landingpad { ptr, i32 }
          cleanup
  %25 = extractvalue { ptr, i32 } %24, 0
  store ptr %25, ptr %8, align 8
  %26 = extractvalue { ptr, i32 } %24, 1
  store i32 %26, ptr %9, align 4
  call void @_ZdlPvm(ptr noundef %11, i64 noundef 8) #18
  call void @llvm.lifetime.end.p0(i64 8, ptr %7) #3
  br label %55

27:                                               ; preds = %12
  %28 = call noundef i32 @_ZN13Probabilities8get_probE8ProbName(i32 noundef 6)
  %29 = call noundef zeroext i1 @_Z12rnd_flipcoinjPK6FilterPKNSt7__cxx1112basic_stringIcSt11char_traitsIcESaIcEEE(i32 noundef %28, ptr noundef null, ptr noundef null)
  %30 = load ptr, ptr %7, align 8, !tbaa !13
  %31 = getelementptr inbounds nuw %class.SafeOpFlags, ptr %30, i32 0, i32 0
  %32 = zext i1 %29 to i8
  store i8 %32, ptr %31, align 4, !tbaa !21
  br label %33

33:                                               ; preds = %27, %20
  %34 = load ptr, ptr %7, align 8, !tbaa !13
  %35 = getelementptr inbounds nuw %class.SafeOpFlags, ptr %34, i32 0, i32 0
  %36 = load i8, ptr %35, align 4, !tbaa !21, !range !19, !noundef !20
  %37 = trunc i8 %36 to i1
  %38 = load ptr, ptr %7, align 8, !tbaa !13
  %39 = getelementptr inbounds nuw %class.SafeOpFlags, ptr %38, i32 0, i32 1
  %40 = zext i1 %37 to i8
  store i8 %40, ptr %39, align 1, !tbaa !23
  %41 = load ptr, ptr %7, align 8, !tbaa !13
  %42 = getelementptr inbounds nuw %class.SafeOpFlags, ptr %41, i32 0, i32 2
  store i8 1, ptr %42, align 2, !tbaa !24
  %43 = load i8, ptr %10, align 1, !tbaa !15, !range !19, !noundef !20
  %44 = trunc i8 %43 to i1
  br i1 %44, label %45, label %48

45:                                               ; preds = %33
  %46 = load ptr, ptr %7, align 8, !tbaa !13
  %47 = getelementptr inbounds nuw %class.SafeOpFlags, ptr %46, i32 0, i32 3
  store i32 4, ptr %47, align 4, !tbaa !25
  br label %53

48:                                               ; preds = %33
  %49 = call noundef ptr @_ZN13Probabilities15get_prob_filterE8ProbName(i32 noundef 91)
  %50 = call noundef i32 @_Z8rnd_uptojPK6FilterPKNSt7__cxx1112basic_stringIcSt11char_traitsIcESaIcEEE(i32 noundef 4, ptr noundef %49, ptr noundef null)
  %51 = load ptr, ptr %7, align 8, !tbaa !13
  %52 = getelementptr inbounds nuw %class.SafeOpFlags, ptr %51, i32 0, i32 3
  store i32 %50, ptr %52, align 4, !tbaa !25
  br label %53

53:                                               ; preds = %48, %45
  %54 = load ptr, ptr %7, align 8, !tbaa !13
  call void @llvm.lifetime.end.p0(i64 1, ptr %10) #3
  call void @llvm.lifetime.end.p0(i64 8, ptr %7) #3
  ret ptr %54

55:                                               ; preds = %23
  %56 = load ptr, ptr %8, align 8
  %57 = load i32, ptr %9, align 4
  %58 = insertvalue { ptr, i32 } poison, ptr %56, 0
  %59 = insertvalue { ptr, i32 } %58, i32 %57, 1
  resume { ptr, i32 } %59
}