; Function Attrs: mustprogress uwtable
define dso_local noalias noundef nonnull ptr @_ZN11SafeOpFlags17make_random_unaryEPK4TypeS2_9eUnaryOps(ptr noundef readonly captures(address_is_null) %0, ptr noundef readonly captures(address_is_null) %1, i32 noundef %2) local_unnamed_addr #7 align 2 personality ptr @__gxx_personality_v0 {
  %4 = tail call noalias noundef nonnull dereferenceable(8) ptr @_Znwm(i64 noundef 8) #22
  %5 = tail call noundef zeroext i1 @_ZN9CGOptions12enable_floatEv()
  br i1 %5, label %6, label %_ZN11SafeOpFlags17return_float_typeEPK4TypeS2_9eUnaryOps.exit

6:                                                ; preds = %3
  %.not.i = icmp eq ptr %0, null
  br i1 %.not.i, label %14, label %7

7:                                                ; preds = %6
  %8 = load i32, ptr %0, align 8, !tbaa !30
  %9 = icmp eq i32 %8, 0
  %10 = getelementptr inbounds nuw i8, ptr %0, i64 16
  %11 = load i32, ptr %10, align 8
  %12 = icmp eq i32 %11, 10
  %13 = select i1 %9, i1 %12, i1 false
  br i1 %13, label %.critedge, label %14

14:                                               ; preds = %7, %6
  %.not7.i = icmp eq ptr %1, null
  br i1 %.not7.i, label %22, label %15

15:                                               ; preds = %14
  %16 = load i32, ptr %1, align 8, !tbaa !30
  %17 = icmp eq i32 %16, 0
  %18 = getelementptr inbounds nuw i8, ptr %1, i64 16
  %19 = load i32, ptr %18, align 8
  %20 = icmp eq i32 %19, 10
  %21 = select i1 %17, i1 %20, i1 false
  br i1 %21, label %.critedge, label %22

22:                                               ; preds = %15, %14
  %23 = tail call noundef zeroext i1 @_ZN18FunctionInvocation20UnaryOpWorksForFloatE9eUnaryOps(i32 noundef %2)
  br label %_ZN11SafeOpFlags17return_float_typeEPK4TypeS2_9eUnaryOps.exit

_ZN11SafeOpFlags17return_float_typeEPK4TypeS2_9eUnaryOps.exit: ; preds = %22, %3
  %24 = tail call noundef i32 @_ZN13Probabilities8get_probE8ProbName(i32 noundef 6)
  %25 = tail call noundef zeroext i1 @_Z12rnd_flipcoinjPK6FilterPKNSt7__cxx1112basic_stringIcSt11char_traitsIcESaIcEEE(i32 noundef %24, ptr noundef null, ptr noundef null)
  %26 = zext i1 %25 to i8
  store i8 %26, ptr %4, align 4, !tbaa !21
  %27 = getelementptr inbounds nuw i8, ptr %4, i64 1
  store i8 %26, ptr %27, align 1, !tbaa !25
  %28 = getelementptr inbounds nuw i8, ptr %4, i64 2
  store i8 1, ptr %28, align 2, !tbaa !26
  %29 = tail call noundef ptr @_ZN13Probabilities15get_prob_filterE8ProbName(i32 noundef 91)
  %30 = tail call noundef i32 @_Z8rnd_uptojPK6FilterPKNSt7__cxx1112basic_stringIcSt11char_traitsIcESaIcEEE(i32 noundef 4, ptr noundef %29, ptr noundef null)
  br label %33

.critedge:                                        ; preds = %7, %15
  store i8 1, ptr %4, align 4, !tbaa !21
  %31 = getelementptr inbounds nuw i8, ptr %4, i64 1
  store i8 1, ptr %31, align 1, !tbaa !25
  %32 = getelementptr inbounds nuw i8, ptr %4, i64 2
  store i8 1, ptr %32, align 2, !tbaa !26
  br label %33

33:                                               ; preds = %_ZN11SafeOpFlags17return_float_typeEPK4TypeS2_9eUnaryOps.exit, %.critedge
  %.sink = phi i32 [ %30, %_ZN11SafeOpFlags17return_float_typeEPK4TypeS2_9eUnaryOps.exit ], [ 4, %.critedge ]
  %34 = getelementptr inbounds nuw i8, ptr %4, i64 4
  store i32 %.sink, ptr %34, align 4, !tbaa !27
  ret ptr %4
}